target datalayout = "e-m:e-p270:32:32-p271:32:32-p272:64:64-i64:64-i128:128-f80:128-n8:16:32:64-S128"
target triple = "x86_64-pc-linux-gnu"

%struct.rb_code_location_struct = type { %struct.rb_code_position_struct, %struct.rb_code_position_struct }
%struct.rb_code_position_struct = type { i32, i32 }
%struct.RNode = type { i64, %struct.rb_code_location_struct, i32 }
%struct.RBasic = type { i64, i64 }
%struct.RNode_LIST = type { %struct.RNode, ptr, %union.anon.34, ptr }
%union.anon.34 = type { i64 }

@.str.181 = private unnamed_addr constant [18 x i8] c"arg!: no argument\00", align 1
@.str.182 = private unnamed_addr constant [24 x i8] c"arg!: too many argument\00", align 1
@.str.183 = private unnamed_addr constant [32 x i8] c"non symbol argument to arg!: %s\00", align 1
@.str.184 = private unnamed_addr constant [24 x i8] c"arg!: unknown node (%s)\00", align 1

; Function Attrs: inlinehint nounwind sspstrong willreturn memory(none) uwtable
define internal zeroext i1 @RB_IMMEDIATE_P(i64 noundef %0) #5 {
  %2 = alloca i64, align 8
  store i64 %0, ptr %2, align 8, !tbaa !7
  %3 = load i64, ptr %2, align 8, !tbaa !7
  %4 = and i64 %3, 7
  %5 = icmp ne i64 %4, 0
  ret i1 %5
}

; Function Attrs: inlinehint nounwind sspstrong willreturn memory(read) uwtable
define internal i32 @RB_BUILTIN_TYPE(i64 noundef %0) #8 {
  %2 = alloca i64, align 8
  %3 = alloca i64, align 8
  store i64 %0, ptr %2, align 8, !tbaa !7
  call void @llvm.lifetime.start.p0(i64 8, ptr %3) #31
  %4 = load i64, ptr %2, align 8, !tbaa !7
  %5 = inttoptr i64 %4 to ptr
  %6 = getelementptr inbounds nuw %struct.RBasic, ptr %5, i32 0, i32 0
  %7 = load i64, ptr %6, align 8, !tbaa !169
  %8 = and i64 %7, 31
  store i64 %8, ptr %3, align 8, !tbaa !7
  %9 = load i64, ptr %3, align 8, !tbaa !7
  %10 = trunc i64 %9 to i32
  call void @llvm.lifetime.end.p0(i64 8, ptr %3) #31
  ret i32 %10
}

; Function Attrs: inlinehint nounwind sspstrong willreturn memory(none) uwtable
define internal zeroext i1 @RB_SPECIAL_CONST_P(i64 noundef %0) #5 {
  %2 = alloca i64, align 8
  store i64 %0, ptr %2, align 8, !tbaa !7
  %3 = load i64, ptr %2, align 8, !tbaa !7
  %4 = icmp eq i64 %3, 0
  br i1 %4, label %8, label %5

5:                                                ; preds = %1
  %6 = load i64, ptr %2, align 8, !tbaa !7
  %7 = call zeroext i1 @RB_IMMEDIATE_P(i64 noundef %6) #32
  br label %8

8:                                                ; preds = %5, %1
  %9 = phi i1 [ true, %1 ], [ %7, %5 ]
  ret i1 %9
}

; Function Attrs: inlinehint nounwind sspstrong willreturn memory(read) uwtable
define internal zeroext i1 @RB_DYNAMIC_SYM_P(i64 noundef %0) #8 {
  %2 = alloca i1, align 1
  %3 = alloca i64, align 8
  store i64 %0, ptr %3, align 8, !tbaa !7
  %4 = load i64, ptr %3, align 8, !tbaa !7
  %5 = call zeroext i1 @RB_SPECIAL_CONST_P(i64 noundef %4) #32
  br i1 %5, label %6, label %7

6:                                                ; preds = %1
  store i1 false, ptr %2, align 1
  br label %11

7:                                                ; preds = %1
  %8 = load i64, ptr %3, align 8, !tbaa !7
  %9 = call i32 @RB_BUILTIN_TYPE(i64 noundef %8) #35
  %10 = icmp eq i32 %9, 20
  store i1 %10, ptr %2, align 1
  br label %11

11:                                               ; preds = %7, %6
  %12 = load i1, ptr %2, align 1
  ret i1 %12
}

; Function Attrs: inlinehint nounwind sspstrong willreturn memory(none) uwtable
define internal zeroext i1 @RB_STATIC_SYM_P(i64 noundef %0) #5 {
  %2 = alloca i64, align 8
  %3 = alloca i64, align 8
  store i64 %0, ptr %2, align 8, !tbaa !7
  call void @llvm.lifetime.start.p0(i64 8, ptr %3) #31
  store i64 255, ptr %3, align 8, !tbaa !7
  %4 = load i64, ptr %2, align 8, !tbaa !7
  %5 = and i64 %4, 255
  %6 = icmp eq i64 %5, 12
  call void @llvm.lifetime.end.p0(i64 8, ptr %3) #31
  ret i1 %6
}

; Function Attrs: inlinehint nounwind sspstrong uwtable
define internal i32 @nd_line(ptr noundef %0) #3 {
  %2 = alloca i32, align 4
  %3 = alloca ptr, align 8
  %4 = alloca i64, align 8
  store ptr %0, ptr %3, align 8, !tbaa !73
  %5 = load ptr, ptr %3, align 8, !tbaa !73
  %6 = icmp ne ptr %5, null
  br i1 %6, label %8, label %7

7:                                                ; preds = %1
  store i32 -1, ptr %2, align 4
  br label %15

8:                                                ; preds = %1
  call void @llvm.lifetime.start.p0(i64 8, ptr %4) #31
  %9 = load ptr, ptr %3, align 8, !tbaa !73
  %10 = getelementptr inbounds nuw %struct.RNode, ptr %9, i32 0, i32 0
  %11 = load i64, ptr %10, align 8, !tbaa !104
  store i64 %11, ptr %4, align 8, !tbaa !7
  %12 = load i64, ptr %4, align 8, !tbaa !7
  %13 = ashr i64 %12, 15
  %14 = trunc i64 %13 to i32
  store i32 %14, ptr %2, align 4
  call void @llvm.lifetime.end.p0(i64 8, ptr %4) #31
  br label %15

15:                                               ; preds = %8, %7
  %16 = load i32, ptr %2, align 4
  ret i32 %16
}

; Function Attrs: inlinehint nounwind sspstrong willreturn memory(read) uwtable
define internal zeroext i1 @RB_SYMBOL_P(i64 noundef %0) #8 {
  %2 = alloca i64, align 8
  store i64 %0, ptr %2, align 8, !tbaa !7
  %3 = load i64, ptr %2, align 8, !tbaa !7
  %4 = call zeroext i1 @RB_STATIC_SYM_P(i64 noundef %3) #32
  br i1 %4, label %8, label %5

5:                                                ; preds = %1
  %6 = load i64, ptr %2, align 8, !tbaa !7
  %7 = call zeroext i1 @RB_DYNAMIC_SYM_P(i64 noundef %6) #35
  br label %8

8:                                                ; preds = %5, %1
  %9 = phi i1 [ true, %1 ], [ %7, %5 ]
  ret i1 %9
}

; Function Attrs: inlinehint nounwind sspstrong uwtable
define internal zeroext i1 @nd_type_p(ptr noundef %0, i32 noundef %1) #3 {
  %3 = alloca ptr, align 8
  %4 = alloca i32, align 4
  store ptr %0, ptr %3, align 8, !tbaa !73
  store i32 %1, ptr %4, align 4, !tbaa !41
  %5 = load ptr, ptr %3, align 8, !tbaa !73
  %6 = getelementptr inbounds nuw %struct.RNode, ptr %5, i32 0, i32 0
  %7 = load i64, ptr %6, align 8, !tbaa !104
  %8 = and i64 %7, 32512
  %9 = lshr i64 %8, 8
  %10 = trunc i64 %9 to i32
  %11 = load i32, ptr %4, align 4, !tbaa !41
  %12 = icmp eq i32 %10, %11
  ret i1 %12
}

; Function Attrs: nounwind sspstrong uwtable
define internal i32 @compile_builtin_arg(ptr noundef %0, ptr noundef %1, ptr noundef %2, ptr noundef %3, i32 noundef %4) #0 {
  %6 = alloca i32, align 4
  %7 = alloca ptr, align 8
  %8 = alloca ptr, align 8
  %9 = alloca ptr, align 8
  %10 = alloca ptr, align 8
  %11 = alloca i32, align 4
  %12 = alloca i64, align 8
  %13 = alloca i32, align 4
  %14 = alloca ptr, align 8
  store ptr %0, ptr %7, align 8, !tbaa !11
  store ptr %1, ptr %8, align 8, !tbaa !37
  store ptr %2, ptr %9, align 8, !tbaa !73
  store ptr %3, ptr %10, align 8, !tbaa !73
  store i32 %4, ptr %11, align 4, !tbaa !41
  call void @llvm.lifetime.start.p0(i64 8, ptr %12) #31
  %15 = load ptr, ptr %9, align 8, !tbaa !73
  %16 = icmp ne ptr %15, null
  br i1 %16, label %18, label %17

17:                                               ; preds = %5
  br label %60

18:                                               ; preds = %5
  %19 = load ptr, ptr %9, align 8, !tbaa !73
  %20 = call zeroext i1 @nd_type_p(ptr noundef %19, i32 noundef 43)
  br i1 %20, label %22, label %21

21:                                               ; preds = %18
  br label %74

22:                                               ; preds = %18
  %23 = load ptr, ptr %9, align 8, !tbaa !73
  %24 = getelementptr inbounds nuw %struct.RNode_LIST, ptr %23, i32 0, i32 3
  %25 = load ptr, ptr %24, align 8, !tbaa !1030
  %26 = icmp ne ptr %25, null
  br i1 %26, label %27, label %28

27:                                               ; preds = %22
  br label %64

28:                                               ; preds = %22
  %29 = load ptr, ptr %9, align 8, !tbaa !73
  %30 = getelementptr inbounds nuw %struct.RNode_LIST, ptr %29, i32 0, i32 1
  %31 = load ptr, ptr %30, align 8, !tbaa !1028
  store ptr %31, ptr %9, align 8, !tbaa !73
  %32 = load ptr, ptr %9, align 8, !tbaa !73
  %33 = icmp ne ptr %32, null
  br i1 %33, label %35, label %34

34:                                               ; preds = %28
  br label %60

35:                                               ; preds = %28
  %36 = load ptr, ptr %9, align 8, !tbaa !73
  %37 = getelementptr inbounds nuw %struct.RNode, ptr %36, i32 0, i32 0
  %38 = load i64, ptr %37, align 8, !tbaa !104
  %39 = and i64 %38, 32512
  %40 = lshr i64 %39, 8
  %41 = trunc i64 %40 to i32
  switch i32 %41, label %45 [
    i32 101, label %42
  ]

42:                                               ; preds = %35
  %43 = load ptr, ptr %9, align 8, !tbaa !73
  %44 = call i64 @rb_node_sym_string_val(ptr noundef %43)
  store i64 %44, ptr %12, align 8, !tbaa !7
  br label %46

45:                                               ; preds = %35
  br label %74

46:                                               ; preds = %42
  %47 = load i64, ptr %12, align 8, !tbaa !7
  %48 = call zeroext i1 @RB_SYMBOL_P(i64 noundef %47) #35
  br i1 %48, label %50, label %49

49:                                               ; preds = %46
  br label %68

50:                                               ; preds = %46
  %51 = load i32, ptr %11, align 4, !tbaa !41
  %52 = icmp ne i32 %51, 0
  br i1 %52, label %59, label %53

53:                                               ; preds = %50
  %54 = load ptr, ptr %7, align 8, !tbaa !11
  %55 = load ptr, ptr %8, align 8, !tbaa !37
  %56 = load ptr, ptr %10, align 8, !tbaa !73
  %57 = load i64, ptr %12, align 8, !tbaa !7
  %58 = call i64 @rb_sym2id(i64 noundef %57)
  call void @compile_lvar(ptr noundef %54, ptr noundef %55, ptr noundef %56, i64 noundef %58)
  br label %59

59:                                               ; preds = %53, %50
  store i32 1, ptr %6, align 4
  store i32 1, ptr %13, align 4
  br label %89

60:                                               ; preds = %34, %17
  %61 = load ptr, ptr %7, align 8, !tbaa !11
  %62 = load ptr, ptr %9, align 8, !tbaa !73
  %63 = call i32 @nd_line(ptr noundef %62)
  call void (ptr, i32, ptr, ...) @append_compile_error(ptr noundef %61, i32 noundef %63, ptr noundef @.str.181)
  store i32 0, ptr %6, align 4
  store i32 1, ptr %13, align 4
  br label %89

64:                                               ; preds = %27
  %65 = load ptr, ptr %7, align 8, !tbaa !11
  %66 = load ptr, ptr %9, align 8, !tbaa !73
  %67 = call i32 @nd_line(ptr noundef %66)
  call void (ptr, i32, ptr, ...) @append_compile_error(ptr noundef %65, i32 noundef %67, ptr noundef @.str.182)
  store i32 0, ptr %6, align 4
  store i32 1, ptr %13, align 4
  br label %89

68:                                               ; preds = %49
  %69 = load ptr, ptr %7, align 8, !tbaa !11
  %70 = load ptr, ptr %9, align 8, !tbaa !73
  %71 = call i32 @nd_line(ptr noundef %70)
  %72 = load i64, ptr %12, align 8, !tbaa !7
  %73 = call ptr @rb_builtin_class_name(i64 noundef %72)
  call void (ptr, i32, ptr, ...) @append_compile_error(ptr noundef %69, i32 noundef %71, ptr noundef @.str.183, ptr noundef %73)
  store i32 0, ptr %6, align 4
  store i32 1, ptr %13, align 4
  br label %89

74:                                               ; preds = %45, %21
  br label %75

75:                                               ; preds = %74
  call void @llvm.lifetime.start.p0(i64 8, ptr %14) #31
  %76 = load ptr, ptr %9, align 8, !tbaa !73
  store ptr %76, ptr %14, align 8, !tbaa !73
  %77 = load ptr, ptr %7, align 8, !tbaa !11
  %78 = load ptr, ptr %14, align 8, !tbaa !73
  %79 = call i32 @nd_line(ptr noundef %78)
  %80 = load ptr, ptr %14, align 8, !tbaa !73
  %81 = getelementptr inbounds nuw %struct.RNode, ptr %80, i32 0, i32 0
  %82 = load i64, ptr %81, align 8, !tbaa !104
  %83 = and i64 %82, 32512
  %84 = lshr i64 %83, 8
  %85 = trunc i64 %84 to i32
  %86 = call ptr @ruby_node_name(i32 noundef %85)
  call void (ptr, i32, ptr, ...) @append_compile_error(ptr noundef %77, i32 noundef %79, ptr noundef @.str.184, ptr noundef %86)
  store i32 0, ptr %6, align 4
  store i32 1, ptr %13, align 4
  call void @llvm.lifetime.end.p0(i64 8, ptr %14) #31
  br label %89

87:                                               ; No predecessors!
  br label %88

88:                                               ; preds = %87
  store i32 0, ptr %13, align 4
  br label %89

89:                                               ; preds = %88, %75, %68, %64, %60, %59
  call void @llvm.lifetime.end.p0(i64 8, ptr %12) #31
  %90 = load i32, ptr %13, align 4
  switch i32 %90, label %93 [
    i32 0, label %91
    i32 1, label %91
  ]

91:                                               ; preds = %89, %89
  %92 = load i32, ptr %6, align 4
  ret i32 %92

93:                                               ; preds = %89
  unreachable
}