; Function Attrs: nounwind sspstrong uwtable
define internal fastcc range(i32 0, 2) i32 @compile_builtin_arg(ptr noundef %0, ptr noundef captures(none) %1, ptr noundef readonly captures(address_is_null) %2, ptr noundef captures(address_is_null) %3, i32 noundef %4) unnamed_addr #1 {
  %.not = icmp eq ptr %2, null
  br i1 %.not, label %33, label %6

6:                                                ; preds = %5
  %.val = load i64, ptr %2, align 8, !tbaa !169
  %7 = and i64 %.val, 32512
  %8 = icmp eq i64 %7, 11008
  br i1 %8, label %9, label %40

9:                                                ; preds = %6
  %10 = getelementptr inbounds nuw i8, ptr %2, i64 48
  %11 = load ptr, ptr %10, align 8, !tbaa !869
  %.not29 = icmp eq ptr %11, null
  br i1 %.not29, label %12, label %nd_line.exit

12:                                               ; preds = %9
  %13 = getelementptr inbounds nuw i8, ptr %2, i64 32
  %14 = load ptr, ptr %13, align 8, !tbaa !867
  %.not30 = icmp eq ptr %14, null
  br i1 %.not30, label %33, label %15

15:                                               ; preds = %12
  %16 = load i64, ptr %14, align 8, !tbaa !169
  %17 = and i64 %16, 32512
  %cond = icmp eq i64 %17, 25856
  br i1 %cond, label %18, label %40

18:                                               ; preds = %15
  %19 = tail call i64 @rb_node_sym_string_val(ptr noundef nonnull %14) #38
  %20 = and i64 %19, 255
  %21 = icmp eq i64 %20, 12
  br i1 %21, label %RB_SYMBOL_P.exit.thread, label %22

22:                                               ; preds = %18
  %23 = icmp eq i64 %19, 0
  %24 = and i64 %19, 7
  %25 = icmp ne i64 %24, 0
  %26 = or i1 %23, %25
  br i1 %26, label %nd_line.exit34, label %RB_SYMBOL_P.exit

RB_SYMBOL_P.exit:                                 ; preds = %22
  %27 = inttoptr i64 %19 to ptr
  %28 = load i64, ptr %27, align 8, !tbaa !80
  %29 = and i64 %28, 31
  %30 = icmp eq i64 %29, 20
  br i1 %30, label %RB_SYMBOL_P.exit.thread, label %nd_line.exit34

RB_SYMBOL_P.exit.thread:                          ; preds = %18, %RB_SYMBOL_P.exit
  %.not31 = icmp eq i32 %4, 0
  br i1 %.not31, label %31, label %48

31:                                               ; preds = %RB_SYMBOL_P.exit.thread
  %32 = tail call i64 @rb_sym2id(i64 noundef %19) #38
  tail call fastcc void @compile_lvar(ptr noundef %0, ptr noundef %1, ptr noundef %3, i64 noundef %32)
  br label %48

33:                                               ; preds = %12, %5
  tail call void (ptr, i32, ptr, ...) @append_compile_error(ptr noundef %0, i32 noundef -1, ptr noundef nonnull @.str.181)
  br label %48

nd_line.exit:                                     ; preds = %9
  %34 = lshr i64 %.val, 15
  %35 = trunc i64 %34 to i32
  tail call void (ptr, i32, ptr, ...) @append_compile_error(ptr noundef %0, i32 noundef %35, ptr noundef nonnull @.str.182)
  br label %48

nd_line.exit34:                                   ; preds = %22, %RB_SYMBOL_P.exit
  %36 = load i64, ptr %14, align 8, !tbaa !169
  %37 = lshr i64 %36, 15
  %38 = trunc i64 %37 to i32
  %39 = tail call ptr @rb_builtin_class_name(i64 noundef %19) #38
  tail call void (ptr, i32, ptr, ...) @append_compile_error(ptr noundef %0, i32 noundef %38, ptr noundef nonnull @.str.183, ptr noundef %39)
  br label %48

40:                                               ; preds = %6, %15
  %41 = phi i64 [ %16, %15 ], [ %.val, %6 ]
  %42 = lshr i64 %41, 15
  %43 = trunc i64 %42 to i32
  %44 = trunc i64 %41 to i32
  %45 = lshr i32 %44, 8
  %46 = and i32 %45, 127
  %47 = tail call ptr @ruby_node_name(i32 noundef %46) #38
  tail call void (ptr, i32, ptr, ...) @append_compile_error(ptr noundef %0, i32 noundef %43, ptr noundef nonnull @.str.184, ptr noundef %47)
  br label %48

48:                                               ; preds = %RB_SYMBOL_P.exit.thread, %31, %40, %nd_line.exit34, %nd_line.exit, %33
  %.0 = phi i32 [ 0, %nd_line.exit ], [ 0, %nd_line.exit34 ], [ 0, %40 ], [ 0, %33 ], [ 1, %31 ], [ 1, %RB_SYMBOL_P.exit.thread ]
  ret i32 %.0
}